; Function Attrs: nounwind uwtable
define ptr @l_Lake_ToolchainVer_ofDir_x3f(ptr noundef %0, ptr noundef %1) local_unnamed_addr #0 {
  %3 = load ptr, ptr @l_Lake_toolchainFileName, align 8, !tbaa !4
  %4 = tail call ptr @l_System_FilePath_join(ptr noundef %0, ptr noundef %3) #5
  %5 = tail call ptr @l_Lake_ToolchainVer_ofFile_x3f(ptr noundef %4, ptr noundef %1)
  %6 = ptrtoint ptr %4 to i64
  %7 = and i64 %6, 1
  %.not = icmp eq i64 %7, 0
  br i1 %.not, label %8, label %lean_dec.exit

8:                                                ; preds = %2
  %9 = load i32, ptr %4, align 4, !tbaa !8
  %10 = icmp sgt i32 %9, 1
  br i1 %10, label %11, label %13, !prof !11

11:                                               ; preds = %8
  %12 = add nsw i32 %9, -1
  store i32 %12, ptr %4, align 4, !tbaa !8
  br label %lean_dec.exit

13:                                               ; preds = %8
  %.not.i = icmp eq i32 %9, 0
  br i1 %.not.i, label %lean_dec.exit, label %14

14:                                               ; preds = %13
  tail call void @lean_dec_ref_cold(ptr noundef nonnull %4) #5
  br label %lean_dec.exit

lean_dec.exit:                                    ; preds = %14, %13, %11, %2
  ret ptr %5
}